(dp1
S'OriginalConfig'
p2
ccopy_reg
_reconstructor
p3
(cWMCore.Configuration
Configuration
p4
c__builtin__
object
p5
NtRp6
(dp7
S'Site'
p8
g3
(cWMCore.Configuration
ConfigSection
p9
g5
NtRp10
(dp11
S'_internal_skipChecks'
p12
I00
sS'_internal_documentation'
p13
S''
sS'_internal_settings'
p14
c__builtin__
set
p15
((lp16
S'storageSite'
p17
atRp18
sS'_internal_name'
p19
g8
sS'_internal_docstrings'
p20
(dp21
sS'_internal_children'
p22
g15
((ltRp23
sg17
S'T2_CH_CERN'
p24
sS'_internal_parent_ref'
p25
NsbsS'_internal_sections'
p26
(lp27
S'General'
p28
aS'JobType'
p29
aS'Data'
p30
ag8
asg28
g3
(g9
g5
NtRp31
(dp32
S'transferLogs'
p33
I01
sg12
I00
sg13
S''
sg14
g15
((lp34
g33
aS'workArea'
p35
aS'requestName'
p36
atRp37
sg19
g28
sg20
(dp38
sg22
g15
((ltRp39
sg36
S'privateMCProduction_Step3_M1000'
p40
sg25
Nsg35
S'crab_privateMCProduction'
p41
sbsS'_internal_webapps'
p42
(lp43
sS'_internal_components'
p44
(lp45
sg30
g3
(g9
g5
NtRp46
(dp47
g12
I00
sS'unitsPerJob'
p48
I1
sg13
S''
sg14
g15
((lp49
g48
aS'userInputFiles'
p50
aS'publication'
p51
aS'splitting'
p52
aS'totalUnits'
p53
atRp54
sg19
g30
sg52
S'FileBased'
p55
sg20
(dp56
sg22
g15
((ltRp57
sg51
I00
sg25
Nsg50
(lp58
S'/store/user/aioannou/CRAB_UserFiles/crab_privateMCProduction_Step2_M1000/170707_072355/0000/step2_1.root'
p59
aS'/store/user/aioannou/CRAB_UserFiles/crab_privateMCProduction_Step2_M1000/170707_072355/0000/step2_2.root'
p60
aS'/store/user/aioannou/CRAB_UserFiles/crab_privateMCProduction_Step2_M1000/170707_072355/0000/step2_3.root'
p61
aS'/store/user/aioannou/CRAB_UserFiles/crab_privateMCProduction_Step2_M1000/170707_072355/0000/step2_4.root'
p62
aS'/store/user/aioannou/CRAB_UserFiles/crab_privateMCProduction_Step2_M1000/170707_072355/0000/step2_5.root'
p63
aS'/store/user/aioannou/CRAB_UserFiles/crab_privateMCProduction_Step2_M1000/170707_072355/0000/step2_6.root'
p64
aS'/store/user/aioannou/CRAB_UserFiles/crab_privateMCProduction_Step2_M1000/170707_072355/0000/step2_7.root'
p65
aS'/store/user/aioannou/CRAB_UserFiles/crab_privateMCProduction_Step2_M1000/170707_072355/0000/step2_8.root'
p66
aS'/store/user/aioannou/CRAB_UserFiles/crab_privateMCProduction_Step2_M1000/170707_072355/0000/step2_9.root'
p67
aS'/store/user/aioannou/CRAB_UserFiles/crab_privateMCProduction_Step2_M1000/170707_072355/0000/step2_10.root'
p68
aS'/store/user/aioannou/CRAB_UserFiles/crab_privateMCProduction_Step2_M1000/170707_072355/0000/step2_11.root'
p69
aS'/store/user/aioannou/CRAB_UserFiles/crab_privateMCProduction_Step2_M1000/170707_072355/0000/step2_12.root'
p70
aS'/store/user/aioannou/CRAB_UserFiles/crab_privateMCProduction_Step2_M1000/170707_072355/0000/step2_13.root'
p71
aS'/store/user/aioannou/CRAB_UserFiles/crab_privateMCProduction_Step2_M1000/170707_072355/0000/step2_14.root'
p72
aS'/store/user/aioannou/CRAB_UserFiles/crab_privateMCProduction_Step2_M1000/170707_072355/0000/step2_15.root'
p73
aS'/store/user/aioannou/CRAB_UserFiles/crab_privateMCProduction_Step2_M1000/170707_072355/0000/step2_16.root'
p74
aS'/store/user/aioannou/CRAB_UserFiles/crab_privateMCProduction_Step2_M1000/170707_072355/0000/step2_17.root'
p75
aS'/store/user/aioannou/CRAB_UserFiles/crab_privateMCProduction_Step2_M1000/170707_072355/0000/step2_18.root'
p76
aS'/store/user/aioannou/CRAB_UserFiles/crab_privateMCProduction_Step2_M1000/170707_072355/0000/step2_19.root'
p77
aS'/store/user/aioannou/CRAB_UserFiles/crab_privateMCProduction_Step2_M1000/170707_072355/0000/step2_20.root'
p78
aS'/store/user/aioannou/CRAB_UserFiles/crab_privateMCProduction_Step2_M1000/170707_072355/0000/step2_21.root'
p79
aS'/store/user/aioannou/CRAB_UserFiles/crab_privateMCProduction_Step2_M1000/170707_072355/0000/step2_22.root'
p80
aS'/store/user/aioannou/CRAB_UserFiles/crab_privateMCProduction_Step2_M1000/170707_072355/0000/step2_23.root'
p81
aS'/store/user/aioannou/CRAB_UserFiles/crab_privateMCProduction_Step2_M1000/170707_072355/0000/step2_24.root'
p82
aS'/store/user/aioannou/CRAB_UserFiles/crab_privateMCProduction_Step2_M1000/170707_072355/0000/step2_25.root'
p83
aS'/store/user/aioannou/CRAB_UserFiles/crab_privateMCProduction_Step2_M1000/170707_072355/0000/step2_26.root'
p84
aS'/store/user/aioannou/CRAB_UserFiles/crab_privateMCProduction_Step2_M1000/170707_072355/0000/step2_27.root'
p85
aS'/store/user/aioannou/CRAB_UserFiles/crab_privateMCProduction_Step2_M1000/170707_072355/0000/step2_28.root'
p86
aS'/store/user/aioannou/CRAB_UserFiles/crab_privateMCProduction_Step2_M1000/170707_072355/0000/step2_29.root'
p87
aS'/store/user/aioannou/CRAB_UserFiles/crab_privateMCProduction_Step2_M1000/170707_072355/0000/step2_30.root'
p88
aS'/store/user/aioannou/CRAB_UserFiles/crab_privateMCProduction_Step2_M1000/170707_072355/0000/step2_31.root'
p89
aS'/store/user/aioannou/CRAB_UserFiles/crab_privateMCProduction_Step2_M1000/170707_072355/0000/step2_32.root'
p90
aS'/store/user/aioannou/CRAB_UserFiles/crab_privateMCProduction_Step2_M1000/170707_072355/0000/step2_33.root'
p91
aS'/store/user/aioannou/CRAB_UserFiles/crab_privateMCProduction_Step2_M1000/170707_072355/0000/step2_34.root'
p92
aS'/store/user/aioannou/CRAB_UserFiles/crab_privateMCProduction_Step2_M1000/170707_072355/0000/step2_35.root'
p93
aS'/store/user/aioannou/CRAB_UserFiles/crab_privateMCProduction_Step2_M1000/170707_072355/0000/step2_36.root'
p94
aS'/store/user/aioannou/CRAB_UserFiles/crab_privateMCProduction_Step2_M1000/170707_072355/0000/step2_37.root'
p95
aS'/store/user/aioannou/CRAB_UserFiles/crab_privateMCProduction_Step2_M1000/170707_072355/0000/step2_38.root'
p96
aS'/store/user/aioannou/CRAB_UserFiles/crab_privateMCProduction_Step2_M1000/170707_072355/0000/step2_39.root'
p97
aS'/store/user/aioannou/CRAB_UserFiles/crab_privateMCProduction_Step2_M1000/170707_072355/0000/step2_40.root'
p98
aS'/store/user/aioannou/CRAB_UserFiles/crab_privateMCProduction_Step2_M1000/170707_072355/0000/step2_41.root'
p99
aS'/store/user/aioannou/CRAB_UserFiles/crab_privateMCProduction_Step2_M1000/170707_072355/0000/step2_42.root'
p100
aS'/store/user/aioannou/CRAB_UserFiles/crab_privateMCProduction_Step2_M1000/170707_072355/0000/step2_43.root'
p101
aS'/store/user/aioannou/CRAB_UserFiles/crab_privateMCProduction_Step2_M1000/170707_072355/0000/step2_44.root'
p102
aS'/store/user/aioannou/CRAB_UserFiles/crab_privateMCProduction_Step2_M1000/170707_072355/0000/step2_45.root'
p103
aS'/store/user/aioannou/CRAB_UserFiles/crab_privateMCProduction_Step2_M1000/170707_072355/0000/step2_46.root'
p104
aS'/store/user/aioannou/CRAB_UserFiles/crab_privateMCProduction_Step2_M1000/170707_072355/0000/step2_47.root'
p105
aS'/store/user/aioannou/CRAB_UserFiles/crab_privateMCProduction_Step2_M1000/170707_072355/0000/step2_48.root'
p106
aS'/store/user/aioannou/CRAB_UserFiles/crab_privateMCProduction_Step2_M1000/170707_072355/0000/step2_49.root'
p107
aS'/store/user/aioannou/CRAB_UserFiles/crab_privateMCProduction_Step2_M1000/170707_072355/0000/step2_50.root'
p108
aS'/store/user/aioannou/CRAB_UserFiles/crab_privateMCProduction_Step2_M1000/170707_072355/0000/step2_51.root'
p109
aS'/store/user/aioannou/CRAB_UserFiles/crab_privateMCProduction_Step2_M1000/170707_072355/0000/step2_52.root'
p110
aS'/store/user/aioannou/CRAB_UserFiles/crab_privateMCProduction_Step2_M1000/170707_072355/0000/step2_53.root'
p111
aS'/store/user/aioannou/CRAB_UserFiles/crab_privateMCProduction_Step2_M1000/170707_072355/0000/step2_54.root'
p112
aS'/store/user/aioannou/CRAB_UserFiles/crab_privateMCProduction_Step2_M1000/170707_072355/0000/step2_55.root'
p113
aS'/store/user/aioannou/CRAB_UserFiles/crab_privateMCProduction_Step2_M1000/170707_072355/0000/step2_56.root'
p114
aS'/store/user/aioannou/CRAB_UserFiles/crab_privateMCProduction_Step2_M1000/170707_072355/0000/step2_57.root'
p115
aS'/store/user/aioannou/CRAB_UserFiles/crab_privateMCProduction_Step2_M1000/170707_072355/0000/step2_58.root'
p116
aS'/store/user/aioannou/CRAB_UserFiles/crab_privateMCProduction_Step2_M1000/170707_072355/0000/step2_59.root'
p117
aS'/store/user/aioannou/CRAB_UserFiles/crab_privateMCProduction_Step2_M1000/170707_072355/0000/step2_60.root'
p118
aS'/store/user/aioannou/CRAB_UserFiles/crab_privateMCProduction_Step2_M1000/170707_072355/0000/step2_61.root'
p119
aS'/store/user/aioannou/CRAB_UserFiles/crab_privateMCProduction_Step2_M1000/170707_072355/0000/step2_62.root'
p120
aS'/store/user/aioannou/CRAB_UserFiles/crab_privateMCProduction_Step2_M1000/170707_072355/0000/step2_63.root'
p121
aS'/store/user/aioannou/CRAB_UserFiles/crab_privateMCProduction_Step2_M1000/170707_072355/0000/step2_64.root'
p122
aS'/store/user/aioannou/CRAB_UserFiles/crab_privateMCProduction_Step2_M1000/170707_072355/0000/step2_65.root'
p123
aS'/store/user/aioannou/CRAB_UserFiles/crab_privateMCProduction_Step2_M1000/170707_072355/0000/step2_66.root'
p124
aS'/store/user/aioannou/CRAB_UserFiles/crab_privateMCProduction_Step2_M1000/170707_072355/0000/step2_67.root'
p125
aS'/store/user/aioannou/CRAB_UserFiles/crab_privateMCProduction_Step2_M1000/170707_072355/0000/step2_68.root'
p126
aS'/store/user/aioannou/CRAB_UserFiles/crab_privateMCProduction_Step2_M1000/170707_072355/0000/step2_69.root'
p127
aS'/store/user/aioannou/CRAB_UserFiles/crab_privateMCProduction_Step2_M1000/170707_072355/0000/step2_70.root'
p128
aS'/store/user/aioannou/CRAB_UserFiles/crab_privateMCProduction_Step2_M1000/170707_072355/0000/step2_71.root'
p129
aS'/store/user/aioannou/CRAB_UserFiles/crab_privateMCProduction_Step2_M1000/170707_072355/0000/step2_72.root'
p130
aS'/store/user/aioannou/CRAB_UserFiles/crab_privateMCProduction_Step2_M1000/170707_072355/0000/step2_73.root'
p131
aS'/store/user/aioannou/CRAB_UserFiles/crab_privateMCProduction_Step2_M1000/170707_072355/0000/step2_74.root'
p132
aS'/store/user/aioannou/CRAB_UserFiles/crab_privateMCProduction_Step2_M1000/170707_072355/0000/step2_75.root'
p133
aS'/store/user/aioannou/CRAB_UserFiles/crab_privateMCProduction_Step2_M1000/170707_072355/0000/step2_76.root'
p134
aS'/store/user/aioannou/CRAB_UserFiles/crab_privateMCProduction_Step2_M1000/170707_072355/0000/step2_77.root'
p135
aS'/store/user/aioannou/CRAB_UserFiles/crab_privateMCProduction_Step2_M1000/170707_072355/0000/step2_78.root'
p136
aS'/store/user/aioannou/CRAB_UserFiles/crab_privateMCProduction_Step2_M1000/170707_072355/0000/step2_79.root'
p137
aS'/store/user/aioannou/CRAB_UserFiles/crab_privateMCProduction_Step2_M1000/170707_072355/0000/step2_80.root'
p138
aS'/store/user/aioannou/CRAB_UserFiles/crab_privateMCProduction_Step2_M1000/170707_072355/0000/step2_81.root'
p139
aS'/store/user/aioannou/CRAB_UserFiles/crab_privateMCProduction_Step2_M1000/170707_072355/0000/step2_82.root'
p140
aS'/store/user/aioannou/CRAB_UserFiles/crab_privateMCProduction_Step2_M1000/170707_072355/0000/step2_83.root'
p141
aS'/store/user/aioannou/CRAB_UserFiles/crab_privateMCProduction_Step2_M1000/170707_072355/0000/step2_84.root'
p142
asg53
I-1
sbsg29
g3
(g9
g5
NtRp143
(dp144
S'numCores'
p145
I4
sg12
I00
sg13
S''
sg14
g15
((lp146
S'psetName'
p147
aS'pluginName'
p148
ag145
atRp149
sg19
g29
sg20
(dp150
sg148
S'Analysis'
p151
sg22
g15
((ltRp152
sg147
S'step3_RECO_cfg.py'
p153
sg25
NsbsbsS'voGroup'
p154
S''
sS'Server'
p155
S'cmsweb.cern.ch'
p156
sS'instance'
p157
S'prod'
p158
sS'RequestName'
p159
V170709_142147:aioannou_crab_privateMCProduction_Step3_M1000
p160
sS'voRole'
p161
S'NULL'
p162
sS'Port'
p163
S''
s.